(iMouvement
Mouvements
p0
(dp1
S'tabMouvementDoigts'
p2
(lp3
(lp4
(F857.4319910984398
F562.1134955506501
tp5
a(F890.8040916461852
F553.3584539548967
tp6
a(F1014.8270170344474
F552.2261134993271
tp7
a(F1200.5686176627648
F560.870376514961
tp8
a(F1525.7309580480483
F569.083870268196
tp9
aasS'sensibilite'
p10
I65
sS'nbrDoigt'
p11
I1
sb.