(iMouvement
Mouvements
p0
(dp1
S'tabMouvementDoigts'
p2
(lp3
(lp4
(I249
I740
tp5
a(I439
I699
tp6
a(I620
I684
tp7
a(I815
I684
tp8
a(I1149
I687
tp9
a(I1233
I694
tp10
a(I1263
I698
tp11
a(I1269
I699
tp12
aasS'sensibilite'
p13
I35
sS'nbrDoigt'
p14
I1
sb.