(iMouvement
Mouvements
p0
(dp1
S'tabMouvementDoigts'
p2
(lp3
(lp4
(F406.0420576903535
F396.8415485303767
tp5
a(F409.8396638135687
F396.35817478597977
tp6
a(F414.30647657728605
F395.3537253288026
tp7
a(F417.40196523703077
F396.6267701894807
tp8
a(F419.92245922130843
F396.24319336855194
tp9
a(F426.4887999709105
F396.58825633557046
tp10
a(F433.609716218749
F397.03971621654273
tp11
a(F443.6187658167529
F397.58361724698926
tp12
a(F458.6208338534441
F397.35587711298984
tp13
a(F474.08646901840416
F399.3738676339883
tp14
a(F496.31867850096216
F399.3914162060895
tp15
a(F521.3811150354902
F400.9579038538924
tp16
a(F549.5851117715833
F401.20624847689146
tp17
a(F580.7620009453461
F402.1028891602103
tp18
a(F627.7687134007521
F394.1803787514285
tp19
a(F669.4896063649378
F394.2365641789878
tp20
aasS'sensibilite'
p21
I65
sS'nbrDoigt'
p22
I1
sb.