(iMouvement
Mouvements
p0
(dp1
S'tabMouvementDoigts'
p2
(lp3
(lp4
(F519.6625130448878
F716.2805174030707
tp5
a(F564.3589900456736
F674.6292343084922
tp6
a(F589.0841957310213
F652.8108143427559
tp7
a(F642.0664659351094
F634.7542106817064
tp8
a(F732.410795853222
F594.9156848811011
tp9
a(F843.585617172484
F558.3571396388232
tp10
a(F981.6729041493165
F501.36814276003435
tp11
a(F1146.114562242418
F440.8489193790923
tp12
aasS'sensibilite'
p13
I65
sS'nbrDoigt'
p14
I1
sb.