(iMouvement
Mouvements
p0
(dp1
S'tabMouvementDoigts'
p2
(lp3
(lp4
(F1249.6170897428212
F575.6682157898987
tp5
a(F1108.4910553295022
F572.4411911513096
tp6
a(F981.1371750960853
F585.7095349242062
tp7
a(F857.7243394957045
F605.4784266878639
tp8
a(F719.806725202819
F623.3100209738557
tp9
a(F569.7834330132209
F644.9084431414899
tp10
a(F389.9435231043137
F667.6008923475727
tp11
aasS'sensibilite'
p12
I65
sS'nbrDoigt'
p13
I1
sb.