(iMouvement
Mouvements
p0
(dp1
S'tabMouvementDoigts'
p2
(lp3
(lp4
(F1238.6960590400242
F639.68098263141
tp5
a(F1082.7942109291243
F637.6156782289256
tp6
a(F1007.4454800420763
F668.9888216922764
tp7
a(F971.981438082589
F670.9555025854274
tp8
a(F923.5715030433323
F664.4940242962361
tp9
a(F866.464634717431
F653.4838085267104
tp10
a(F689.6833463513617
F671.676510812985
tp11
a(F487.9929825717629
F674.7555145113156
tp12
a(F273.2448655760751
F686.7975764199293
tp13
aasS'sensibilite'
p14
I65
sS'nbrDoigt'
p15
I1
sb.