(iMouvement
Mouvements
p0
(dp1
S'tabMouvementDoigts'
p2
(lp3
(lp4
(F685.0130025644487
F351.15197503385036
tp5
a(F682.1128210734693
F350.95822157446815
tp6
a(F679.8822902248232
F351.10127969710095
tp7
a(F677.655188453813
F351.2396406501981
tp8
a(F675.1693607648518
F351.23693634691506
tp9
a(F669.5485419350777
F352.14997043308085
tp10
a(F662.127856465175
F352.05962624833137
tp11
a(F650.0892876700818
F351.9374055959741
tp12
a(F637.0763064902153
F349.8511468826157
tp13
a(F618.6005083885549
F349.43080062375356
tp14
a(F595.6360808085549
F347.14705131529297
tp15
a(F568.1422502081505
F343.8039429083133
tp16
a(F538.9840923662898
F340.69045510141177
tp17
a(F503.44013167051673
F337.58077316652293
tp18
a(F462.01162628645454
F334.51745398206657
tp19
a(F418.00747398655307
F327.22622873781347
tp20
aasS'sensibilite'
p21
I65
sS'nbrDoigt'
p22
I1
sb.