(iMouvement
Mouvements
p0
(dp1
S'tabMouvementDoigts'
p2
(lp3
(lp4
(I1368
I397
tp5
a(I1307
I393
tp6
a(I1006
I392
tp7
a(I525
I423
tp8
a(I182
I477
tp9
a(I29
I504
tp10
aasS'sensibilite'
p11
I35
sS'nbrDoigt'
p12
I1
sb.