(iMouvement
Mouvements
p0
(dp1
S'tabMouvementDoigts'
p2
(lp3
(lp4
(F294.42356216238556
F449.73896198567195
tp5
a(F320.0458963446003
F451.0252462661461
tp6
a(F341.89006158585175
F439.9439139255513
tp7
a(F387.06093949097885
F435.4546816120459
tp8
a(F525.6942159737509
F455.22007687842313
tp9
a(F654.4780707295699
F453.2349147109895
tp10
aasS'sensibilite'
p11
I65
sS'nbrDoigt'
p12
I1
sb.