(iMouvement
Mouvements
p0
(dp1
S'tabMouvementDoigts'
p2
(lp3
(lp4
(F1238.9036204694694
F312.52702793304445
tp5
a(F1222.5941550189386
F301.2075504931188
tp6
a(F1228.6790193530635
F301.0433680497446
tp7
a(F1189.3882058810914
F281.0272467812995
tp8
a(F1122.2993969261786
F294.53446075722644
tp9
a(F1048.9093810199302
F318.6661567964232
tp10
a(F1036.1064251182695
F391.22640080391346
tp11
a(F1053.7699898947892
F419.7140944379309
tp12
a(F1136.9371510592923
F461.11545895204796
tp13
a(F1201.6300472301848
F525.0757025132332
tp14
a(F1221.309051768556
F590.5049538778494
tp15
a(F1149.1447873013228
F667.5149897489964
tp16
a(F967.948229702603
F661.4237205699649
tp17
a(F793.0406529375497
F661.3483794111564
tp18
a(F672.2918019403621
F611.4991119508956
tp19
aasS'sensibilite'
p20
I65
sS'nbrDoigt'
p21
I1
sb.