(iMouvement
Mouvements
p0
(dp1
S'tabMouvementDoigts'
p2
(lp3
(lp4
(I216
I332
tp5
a(I235
I350
tp6
a(I351
I412
tp7
a(I488
I469
tp8
a(I736
I555
tp9
a(I1024
I637
tp10
a(I1260
I681
tp11
a(I1377
I691
tp12
a(I1426
I695
tp13
aasS'sensibilite'
p14
I65
sS'nbrDoigt'
p15
I1
sb.