(iMouvement
Mouvements
p0
(dp1
S'tabMouvementDoigts'
p2
(lp3
(lp4
(F385.70126101411597
F522.0408993339697
tp5
a(F393.36431378863074
F491.12886297126755
tp6
a(F396.6014151996029
F464.40507436657674
tp7
a(F393.5183558890013
F401.1410182653203
tp8
a(F402.0187361175705
F352.59461140444455
tp9
a(F406.65094410417737
F302.1387458865882
tp10
a(F430.638099102339
F267.00261715025056
tp11
a(F440.8903013520214
F274.2755023486461
tp12
a(F442.94325462003314
F332.20744096502483
tp13
a(F457.13255554447403
F398.51295521309424
tp14
a(F468.39069716168717
F459.20117985684
tp15
a(F491.0390910432871
F512.7147175869025
tp16
a(F508.93303280347277
F518.791339596946
tp17
a(F529.0133283303574
F479.6467279600041
tp18
a(F532.4033762234899
F428.77456797783236
tp19
a(F514.2957231607386
F166.7441312676183
tp20
a(F506.1627778498565
F159.9224085688277
tp21
a(F495.9673259345856
F184.15203993393726
tp22
aasS'sensibilite'
p23
I65
sS'nbrDoigt'
p24
I1
sb.